target datalayout = "e-m:e-p270:32:32-p271:32:32-p272:64:64-i64:64-i128:128-f80:128-n8:16:32:64-S128"
target triple = "x86_64-pc-linux-gnu"

@ff_wp_log2_table = external constant [256 x i8], align 16
@ff_log2_tab = external constant [256 x i8], align 16

; Function Attrs: alwaysinline nounwind willreturn memory(none) uwtable
define internal i32 @ff_log2_c(i32 noundef %0) #10 {
  %2 = alloca i32, align 4
  %3 = alloca i32, align 4
  store i32 %0, ptr %2, align 4, !tbaa !39
  call void @llvm.lifetime.start.p0(i64 4, ptr %3) #11
  store i32 0, ptr %3, align 4, !tbaa !39
  %4 = load i32, ptr %2, align 4, !tbaa !39
  %5 = and i32 %4, -65536
  %6 = icmp ne i32 %5, 0
  br i1 %6, label %7, label %12

7:                                                ; preds = %1
  %8 = load i32, ptr %2, align 4, !tbaa !39
  %9 = lshr i32 %8, 16
  store i32 %9, ptr %2, align 4, !tbaa !39
  %10 = load i32, ptr %3, align 4, !tbaa !39
  %11 = add nsw i32 %10, 16
  store i32 %11, ptr %3, align 4, !tbaa !39
  br label %12

12:                                               ; preds = %7, %1
  %13 = load i32, ptr %2, align 4, !tbaa !39
  %14 = and i32 %13, 65280
  %15 = icmp ne i32 %14, 0
  br i1 %15, label %16, label %21

16:                                               ; preds = %12
  %17 = load i32, ptr %2, align 4, !tbaa !39
  %18 = lshr i32 %17, 8
  store i32 %18, ptr %2, align 4, !tbaa !39
  %19 = load i32, ptr %3, align 4, !tbaa !39
  %20 = add nsw i32 %19, 8
  store i32 %20, ptr %3, align 4, !tbaa !39
  br label %21

21:                                               ; preds = %16, %12
  %22 = load i32, ptr %2, align 4, !tbaa !39
  %23 = zext i32 %22 to i64
  %24 = getelementptr inbounds nuw [256 x i8], ptr @ff_log2_tab, i64 0, i64 %23
  %25 = load i8, ptr %24, align 1, !tbaa !83
  %26 = zext i8 %25 to i32
  %27 = load i32, ptr %3, align 4, !tbaa !39
  %28 = add nsw i32 %27, %26
  store i32 %28, ptr %3, align 4, !tbaa !39
  %29 = load i32, ptr %3, align 4, !tbaa !39
  call void @llvm.lifetime.end.p0(i64 4, ptr %3) #11
  ret i32 %29
}

; Function Attrs: alwaysinline nounwind uwtable
define internal i32 @wp_log2(i32 noundef %0) #6 {
  %2 = alloca i32, align 4
  %3 = alloca i32, align 4
  %4 = alloca i32, align 4
  %5 = alloca i32, align 4
  store i32 %0, ptr %3, align 4, !tbaa !39
  call void @llvm.lifetime.start.p0(i64 4, ptr %4) #11
  %6 = load i32, ptr %3, align 4, !tbaa !39
  %7 = icmp ne i32 %6, 0
  br i1 %7, label %9, label %8

8:                                                ; preds = %1
  store i32 0, ptr %2, align 4
  store i32 1, ptr %5, align 4
  br label %49

9:                                                ; preds = %1
  %10 = load i32, ptr %3, align 4, !tbaa !39
  %11 = icmp eq i32 %10, 1
  br i1 %11, label %12, label %13

12:                                               ; preds = %9
  store i32 256, ptr %2, align 4
  store i32 1, ptr %5, align 4
  br label %49

13:                                               ; preds = %9
  %14 = load i32, ptr %3, align 4, !tbaa !39
  %15 = lshr i32 %14, 9
  %16 = load i32, ptr %3, align 4, !tbaa !39
  %17 = add i32 %16, %15
  store i32 %17, ptr %3, align 4, !tbaa !39
  %18 = load i32, ptr %3, align 4, !tbaa !39
  %19 = call i32 @ff_log2_c(i32 noundef %18) #13
  %20 = add nsw i32 %19, 1
  store i32 %20, ptr %4, align 4, !tbaa !39
  %21 = load i32, ptr %4, align 4, !tbaa !39
  %22 = icmp slt i32 %21, 9
  br i1 %22, label %23, label %36

23:                                               ; preds = %13
  %24 = load i32, ptr %4, align 4, !tbaa !39
  %25 = shl i32 %24, 8
  %26 = load i32, ptr %3, align 4, !tbaa !39
  %27 = load i32, ptr %4, align 4, !tbaa !39
  %28 = sub nsw i32 9, %27
  %29 = shl i32 %26, %28
  %30 = and i32 %29, 255
  %31 = zext i32 %30 to i64
  %32 = getelementptr inbounds nuw [256 x i8], ptr @ff_wp_log2_table, i64 0, i64 %31
  %33 = load i8, ptr %32, align 1, !tbaa !83
  %34 = zext i8 %33 to i32
  %35 = add nsw i32 %25, %34
  store i32 %35, ptr %2, align 4
  store i32 1, ptr %5, align 4
  br label %49

36:                                               ; preds = %13
  %37 = load i32, ptr %4, align 4, !tbaa !39
  %38 = shl i32 %37, 8
  %39 = load i32, ptr %3, align 4, !tbaa !39
  %40 = load i32, ptr %4, align 4, !tbaa !39
  %41 = sub nsw i32 %40, 9
  %42 = lshr i32 %39, %41
  %43 = and i32 %42, 255
  %44 = zext i32 %43 to i64
  %45 = getelementptr inbounds nuw [256 x i8], ptr @ff_wp_log2_table, i64 0, i64 %44
  %46 = load i8, ptr %45, align 1, !tbaa !83
  %47 = zext i8 %46 to i32
  %48 = add nsw i32 %38, %47
  store i32 %48, ptr %2, align 4
  store i32 1, ptr %5, align 4
  br label %49

49:                                               ; preds = %36, %23, %12, %8
  call void @llvm.lifetime.end.p0(i64 4, ptr %4) #11
  %50 = load i32, ptr %2, align 4
  ret i32 %50
}

; Function Attrs: nounwind uwtable
define internal i32 @log2s(i32 noundef %0) #1 {
  %2 = alloca i32, align 4
  store i32 %0, ptr %2, align 4, !tbaa !39
  %3 = load i32, ptr %2, align 4, !tbaa !39
  %4 = icmp slt i32 %3, 0
  br i1 %4, label %5, label %10

5:                                                ; preds = %1
  %6 = load i32, ptr %2, align 4, !tbaa !39
  %7 = sub nsw i32 0, %6
  %8 = call i32 @wp_log2(i32 noundef %7)
  %9 = sub nsw i32 0, %8
  br label %13

10:                                               ; preds = %1
  %11 = load i32, ptr %2, align 4, !tbaa !39
  %12 = call i32 @wp_log2(i32 noundef %11)
  br label %13

13:                                               ; preds = %10, %5
  %14 = phi i32 [ %9, %5 ], [ %12, %10 ]
  ret i32 %14
}