; Function Attrs: mustprogress nofree norecurse nosync nounwind willreturn memory(none) uwtable
define internal fastcc range(i32 -71935, 71936) i32 @log2s(i32 noundef %0) unnamed_addr #6 {
  %2 = icmp slt i32 %0, 0
  br i1 %2, label %3, label %33

3:                                                ; preds = %1
  %cond = icmp eq i32 %0, -1
  br i1 %cond, label %wp_log2.exit4, label %4

4:                                                ; preds = %3
  %5 = sub nsw i32 0, %0
  %6 = lshr i32 %5, 9
  %7 = sub i32 %6, %0
  %.not.i5 = icmp ult i32 %7, 65536
  %8 = lshr i32 %7, 16
  %spec.select.i6 = select i1 %.not.i5, i32 %7, i32 %8
  %spec.select12.i7 = select i1 %.not.i5, i32 0, i32 16
  %.not11.i8 = icmp samesign ult i32 %spec.select.i6, 256
  %9 = lshr i32 %spec.select.i6, 8
  %10 = or disjoint i32 %spec.select12.i7, 8
  %.110.i9 = select i1 %.not11.i8, i32 %spec.select.i6, i32 %9
  %.1.i10 = select i1 %.not11.i8, i32 %spec.select12.i7, i32 %10
  %11 = zext nneg i32 %.110.i9 to i64
  %12 = getelementptr inbounds nuw [256 x i8], ptr @ff_log2_tab, i64 0, i64 %11
  %13 = load i8, ptr %12, align 1, !tbaa !65
  %14 = zext i8 %13 to i32
  %15 = add nuw nsw i32 %.1.i10, %14
  %.neg = xor i32 %15, -1
  %16 = icmp samesign ult i32 %15, 8
  %.neg11 = shl nsw i32 %.neg, 8
  br i1 %16, label %17, label %25

17:                                               ; preds = %4
  %18 = sub nuw nsw i32 8, %15
  %19 = shl i32 %7, %18
  %20 = and i32 %19, 254
  %21 = zext nneg i32 %20 to i64
  %22 = getelementptr inbounds nuw [256 x i8], ptr @ff_wp_log2_table, i64 0, i64 %21
  %23 = load i8, ptr %22, align 2, !tbaa !65
  %24 = zext i8 %23 to i32
  %.neg12 = sub nuw nsw i32 %.neg11, %24
  br label %wp_log2.exit4

25:                                               ; preds = %4
  %26 = add nsw i32 %15, -8
  %27 = lshr i32 %7, %26
  %28 = and i32 %27, 255
  %29 = zext nneg i32 %28 to i64
  %30 = getelementptr inbounds nuw [256 x i8], ptr @ff_wp_log2_table, i64 0, i64 %29
  %31 = load i8, ptr %30, align 1, !tbaa !65
  %32 = zext i8 %31 to i32
  %.neg14 = sub nuw nsw i32 %.neg11, %32
  br label %wp_log2.exit4

33:                                               ; preds = %1
  switch i32 %0, label %35 [
    i32 0, label %wp_log2.exit4
    i32 1, label %34
  ]

34:                                               ; preds = %33
  br label %wp_log2.exit4

35:                                               ; preds = %33
  %36 = lshr i32 %0, 9
  %37 = add nuw i32 %36, %0
  %.not.i = icmp ult i32 %37, 65536
  %38 = lshr i32 %37, 16
  %spec.select.i = select i1 %.not.i, i32 %37, i32 %38
  %spec.select12.i = select i1 %.not.i, i32 0, i32 16
  %.not11.i = icmp samesign ult i32 %spec.select.i, 256
  %39 = lshr i32 %spec.select.i, 8
  %40 = or disjoint i32 %spec.select12.i, 8
  %.110.i = select i1 %.not11.i, i32 %spec.select.i, i32 %39
  %.1.i = select i1 %.not11.i, i32 %spec.select12.i, i32 %40
  %41 = zext nneg i32 %.110.i to i64
  %42 = getelementptr inbounds nuw [256 x i8], ptr @ff_log2_tab, i64 0, i64 %41
  %43 = load i8, ptr %42, align 1, !tbaa !65
  %44 = zext i8 %43 to i32
  %45 = add nuw nsw i32 %.1.i, %44
  %46 = icmp samesign ult i32 %45, 8
  %47 = shl nuw nsw i32 %45, 8
  %48 = add nuw nsw i32 %47, 256
  br i1 %46, label %49, label %58

49:                                               ; preds = %35
  %50 = sub nuw nsw i32 8, %45
  %51 = shl i32 %37, %50
  %52 = and i32 %51, 254
  %53 = zext nneg i32 %52 to i64
  %54 = getelementptr inbounds nuw [256 x i8], ptr @ff_wp_log2_table, i64 0, i64 %53
  %55 = load i8, ptr %54, align 2, !tbaa !65
  %56 = zext i8 %55 to i32
  %57 = or disjoint i32 %48, %56
  br label %wp_log2.exit4

58:                                               ; preds = %35
  %59 = add nsw i32 %45, -8
  %60 = lshr i32 %37, %59
  %61 = and i32 %60, 255
  %62 = zext nneg i32 %61 to i64
  %63 = getelementptr inbounds nuw [256 x i8], ptr @ff_wp_log2_table, i64 0, i64 %62
  %64 = load i8, ptr %63, align 1, !tbaa !65
  %65 = zext i8 %64 to i32
  %66 = or disjoint i32 %48, %65
  br label %wp_log2.exit4

wp_log2.exit4:                                    ; preds = %25, %17, %3, %58, %49, %34, %33
  %67 = phi i32 [ 256, %34 ], [ %57, %49 ], [ %66, %58 ], [ %0, %33 ], [ %.neg12, %17 ], [ %.neg14, %25 ], [ -256, %3 ]
  ret i32 %67
}